target datalayout = "e-m:e-p270:32:32-p271:32:32-p272:64:64-i64:64-i128:128-f80:128-n8:16:32:64-S128"
target triple = "x86_64-pc-linux-gnu"

@H5_libinit_g = external global i8, align 1
@H5_libterm_g = external global i8, align 1
@.str.10 = private unnamed_addr constant [8 x i8] c"PALETTE\00", align 1
@H5T_STD_REF_OBJ_g = external global i64, align 8

; Function Attrs: nounwind uwtable
define i32 @H5IMlink_palette(i64 noundef %0, ptr noundef %1, ptr noundef %2) #0 {
  %4 = alloca i32, align 4
  %5 = alloca i64, align 8
  %6 = alloca ptr, align 8
  %7 = alloca ptr, align 8
  %8 = alloca i64, align 8
  %9 = alloca i64, align 8
  %10 = alloca i64, align 8
  %11 = alloca i64, align 8
  %12 = alloca i64, align 8
  %13 = alloca ptr, align 8
  %14 = alloca i64, align 8
  %15 = alloca i64, align 8
  %16 = alloca i32, align 4
  %17 = alloca i32, align 4
  store i64 %0, ptr %5, align 8, !tbaa !3
  store ptr %1, ptr %6, align 8, !tbaa !7
  store ptr %2, ptr %7, align 8, !tbaa !7
  call void @llvm.lifetime.start.p0(i64 8, ptr %8) #7
  call void @llvm.lifetime.start.p0(i64 8, ptr %9) #7
  store i64 -1, ptr %9, align 8, !tbaa !3
  call void @llvm.lifetime.start.p0(i64 8, ptr %10) #7
  store i64 -1, ptr %10, align 8, !tbaa !3
  call void @llvm.lifetime.start.p0(i64 8, ptr %11) #7
  store i64 -1, ptr %11, align 8, !tbaa !3
  call void @llvm.lifetime.start.p0(i64 8, ptr %12) #7
  call void @llvm.lifetime.start.p0(i64 8, ptr %13) #7
  call void @llvm.lifetime.start.p0(i64 8, ptr %14) #7
  call void @llvm.lifetime.start.p0(i64 8, ptr %15) #7
  call void @llvm.lifetime.start.p0(i64 4, ptr %16) #7
  %18 = load ptr, ptr %6, align 8, !tbaa !7
  %19 = icmp eq ptr %18, null
  br i1 %19, label %20, label %21

20:                                               ; preds = %3
  store i32 -1, ptr %4, align 4
  store i32 1, ptr %17, align 4
  br label %214

21:                                               ; preds = %3
  %22 = load ptr, ptr %7, align 8, !tbaa !7
  %23 = icmp eq ptr %22, null
  br i1 %23, label %24, label %25

24:                                               ; preds = %21
  store i32 -1, ptr %4, align 4
  store i32 1, ptr %17, align 4
  br label %214

25:                                               ; preds = %21
  %26 = load i64, ptr %5, align 8, !tbaa !3
  %27 = load ptr, ptr %6, align 8, !tbaa !7
  %28 = call i64 @H5Dopen2(i64 noundef %26, ptr noundef %27, i64 noundef 0)
  store i64 %28, ptr %8, align 8, !tbaa !3
  %29 = icmp slt i64 %28, 0
  br i1 %29, label %30, label %31

30:                                               ; preds = %25
  store i32 -1, ptr %4, align 4
  store i32 1, ptr %17, align 4
  br label %214

31:                                               ; preds = %25
  %32 = load i64, ptr %8, align 8, !tbaa !3
  %33 = call i32 @H5Aexists(i64 noundef %32, ptr noundef @.str.10)
  store i32 %33, ptr %16, align 4, !tbaa !15
  %34 = icmp slt i32 %33, 0
  br i1 %34, label %35, label %36

35:                                               ; preds = %31
  br label %205

36:                                               ; preds = %31
  %37 = load i32, ptr %16, align 4, !tbaa !15
  %38 = icmp eq i32 %37, 0
  br i1 %38, label %39, label %101

39:                                               ; preds = %36
  %40 = call i64 @H5Screate(i32 noundef 0)
  store i64 %40, ptr %11, align 8, !tbaa !3
  %41 = icmp slt i64 %40, 0
  br i1 %41, label %42, label %43

42:                                               ; preds = %39
  br label %205

43:                                               ; preds = %39
  %44 = load i8, ptr @H5_libinit_g, align 1, !tbaa !10, !range !12, !noundef !13
  %45 = trunc i8 %44 to i1
  br i1 %45, label %50, label %46

46:                                               ; preds = %43
  %47 = load i8, ptr @H5_libterm_g, align 1, !tbaa !10, !range !12, !noundef !13
  %48 = trunc i8 %47 to i1
  %49 = xor i1 %48, true
  br label %50

50:                                               ; preds = %46, %43
  %51 = phi i1 [ false, %43 ], [ %49, %46 ]
  %52 = xor i1 %51, true
  %53 = xor i1 %52, true
  %54 = zext i1 %53 to i32
  %55 = sext i32 %54 to i64
  %56 = call i64 @llvm.expect.i64(i64 %55, i64 0)
  %57 = icmp ne i64 %56, 0
  br i1 %57, label %58, label %60

58:                                               ; preds = %50
  %59 = call i32 @H5open()
  br label %61

60:                                               ; preds = %50
  br label %61

61:                                               ; preds = %60, %58
  %62 = load i64, ptr @H5T_STD_REF_OBJ_g, align 8, !tbaa !3
  %63 = call i64 @H5Tcopy(i64 noundef %62)
  store i64 %63, ptr %9, align 8, !tbaa !3
  %64 = icmp slt i64 %63, 0
  br i1 %64, label %65, label %66

65:                                               ; preds = %61
  br label %205

66:                                               ; preds = %61
  %67 = load i64, ptr %8, align 8, !tbaa !3
  %68 = load i64, ptr %9, align 8, !tbaa !3
  %69 = load i64, ptr %11, align 8, !tbaa !3
  %70 = call i64 @H5Acreate2(i64 noundef %67, ptr noundef @.str.10, i64 noundef %68, i64 noundef %69, i64 noundef 0, i64 noundef 0)
  store i64 %70, ptr %10, align 8, !tbaa !3
  %71 = icmp slt i64 %70, 0
  br i1 %71, label %72, label %73

72:                                               ; preds = %66
  br label %205

73:                                               ; preds = %66
  %74 = load i64, ptr %5, align 8, !tbaa !3
  %75 = load ptr, ptr %7, align 8, !tbaa !7
  %76 = call i32 @H5Rcreate(ptr noundef %12, i64 noundef %74, ptr noundef %75, i32 noundef 0, i64 noundef -1)
  %77 = icmp slt i32 %76, 0
  br i1 %77, label %78, label %79

78:                                               ; preds = %73
  br label %205

79:                                               ; preds = %73
  %80 = load i64, ptr %10, align 8, !tbaa !3
  %81 = load i64, ptr %9, align 8, !tbaa !3
  %82 = call i32 @H5Awrite(i64 noundef %80, i64 noundef %81, ptr noundef %12)
  %83 = icmp slt i32 %82, 0
  br i1 %83, label %84, label %85

84:                                               ; preds = %79
  br label %205

85:                                               ; preds = %79
  %86 = load i64, ptr %11, align 8, !tbaa !3
  %87 = call i32 @H5Sclose(i64 noundef %86)
  %88 = icmp slt i32 %87, 0
  br i1 %88, label %89, label %90

89:                                               ; preds = %85
  br label %205

90:                                               ; preds = %85
  %91 = load i64, ptr %9, align 8, !tbaa !3
  %92 = call i32 @H5Tclose(i64 noundef %91)
  %93 = icmp slt i32 %92, 0
  br i1 %93, label %94, label %95

94:                                               ; preds = %90
  br label %205

95:                                               ; preds = %90
  %96 = load i64, ptr %10, align 8, !tbaa !3
  %97 = call i32 @H5Aclose(i64 noundef %96)
  %98 = icmp slt i32 %97, 0
  br i1 %98, label %99, label %100

99:                                               ; preds = %95
  br label %205

100:                                              ; preds = %95
  br label %199

101:                                              ; preds = %36
  %102 = load i32, ptr %16, align 4, !tbaa !15
  %103 = icmp sgt i32 %102, 0
  br i1 %103, label %104, label %198

104:                                              ; preds = %101
  %105 = load i64, ptr %8, align 8, !tbaa !3
  %106 = call i64 @H5Aopen(i64 noundef %105, ptr noundef @.str.10, i64 noundef 0)
  store i64 %106, ptr %10, align 8, !tbaa !3
  %107 = icmp slt i64 %106, 0
  br i1 %107, label %108, label %109

108:                                              ; preds = %104
  br label %205

109:                                              ; preds = %104
  %110 = load i64, ptr %10, align 8, !tbaa !3
  %111 = call i64 @H5Aget_type(i64 noundef %110)
  store i64 %111, ptr %9, align 8, !tbaa !3
  %112 = icmp slt i64 %111, 0
  br i1 %112, label %113, label %114

113:                                              ; preds = %109
  br label %205

114:                                              ; preds = %109
  %115 = load i64, ptr %9, align 8, !tbaa !3
  %116 = call i32 @H5Tget_class(i64 noundef %115)
  %117 = icmp slt i32 %116, 0
  br i1 %117, label %118, label %119

118:                                              ; preds = %114
  br label %205

119:                                              ; preds = %114
  %120 = load i64, ptr %10, align 8, !tbaa !3
  %121 = call i64 @H5Aget_space(i64 noundef %120)
  store i64 %121, ptr %11, align 8, !tbaa !3
  %122 = icmp slt i64 %121, 0
  br i1 %122, label %123, label %124

123:                                              ; preds = %119
  br label %205

124:                                              ; preds = %119
  %125 = load i64, ptr %11, align 8, !tbaa !3
  %126 = call i64 @H5Sget_simple_extent_npoints(i64 noundef %125)
  store i64 %126, ptr %14, align 8, !tbaa !3
  %127 = load i64, ptr %14, align 8, !tbaa !3
  %128 = add i64 %127, 1
  store i64 %128, ptr %15, align 8, !tbaa !3
  %129 = load i64, ptr %15, align 8, !tbaa !3
  %130 = mul i64 8, %129
  %131 = call noalias ptr @malloc(i64 noundef %130) #9
  store ptr %131, ptr %13, align 8, !tbaa !17
  %132 = load i64, ptr %10, align 8, !tbaa !3
  %133 = load i64, ptr %9, align 8, !tbaa !3
  %134 = load ptr, ptr %13, align 8, !tbaa !17
  %135 = call i32 @H5Aread(i64 noundef %132, i64 noundef %133, ptr noundef %134)
  %136 = icmp slt i32 %135, 0
  br i1 %136, label %137, label %138

137:                                              ; preds = %124
  br label %205

138:                                              ; preds = %124
  %139 = load i64, ptr %8, align 8, !tbaa !3
  %140 = call i32 @H5Adelete(i64 noundef %139, ptr noundef @.str.10)
  %141 = icmp slt i32 %140, 0
  br i1 %141, label %142, label %143

142:                                              ; preds = %138
  br label %205

143:                                              ; preds = %138
  %144 = load i64, ptr %5, align 8, !tbaa !3
  %145 = load ptr, ptr %7, align 8, !tbaa !7
  %146 = call i32 @H5Rcreate(ptr noundef %12, i64 noundef %144, ptr noundef %145, i32 noundef 0, i64 noundef -1)
  %147 = icmp slt i32 %146, 0
  br i1 %147, label %148, label %149

148:                                              ; preds = %143
  br label %205

149:                                              ; preds = %143
  %150 = load i64, ptr %12, align 8, !tbaa !3
  %151 = load ptr, ptr %13, align 8, !tbaa !17
  %152 = load i64, ptr %14, align 8, !tbaa !3
  %153 = getelementptr inbounds i64, ptr %151, i64 %152
  store i64 %150, ptr %153, align 8, !tbaa !3
  %154 = load i64, ptr %11, align 8, !tbaa !3
  %155 = call i32 @H5Sclose(i64 noundef %154)
  %156 = icmp slt i32 %155, 0
  br i1 %156, label %157, label %158

157:                                              ; preds = %149
  br label %205

158:                                              ; preds = %149
  %159 = call i64 @H5Screate_simple(i32 noundef 1, ptr noundef %15, ptr noundef null)
  store i64 %159, ptr %11, align 8, !tbaa !3
  %160 = icmp slt i64 %159, 0
  br i1 %160, label %161, label %162

161:                                              ; preds = %158
  br label %205

162:                                              ; preds = %158
  %163 = load i64, ptr %10, align 8, !tbaa !3
  %164 = call i32 @H5Aclose(i64 noundef %163)
  %165 = icmp slt i32 %164, 0
  br i1 %165, label %166, label %167

166:                                              ; preds = %162
  br label %205

167:                                              ; preds = %162
  %168 = load i64, ptr %8, align 8, !tbaa !3
  %169 = load i64, ptr %9, align 8, !tbaa !3
  %170 = load i64, ptr %11, align 8, !tbaa !3
  %171 = call i64 @H5Acreate2(i64 noundef %168, ptr noundef @.str.10, i64 noundef %169, i64 noundef %170, i64 noundef 0, i64 noundef 0)
  store i64 %171, ptr %10, align 8, !tbaa !3
  %172 = icmp slt i64 %171, 0
  br i1 %172, label %173, label %174

173:                                              ; preds = %167
  br label %205

174:                                              ; preds = %167
  %175 = load i64, ptr %10, align 8, !tbaa !3
  %176 = load i64, ptr %9, align 8, !tbaa !3
  %177 = load ptr, ptr %13, align 8, !tbaa !17
  %178 = call i32 @H5Awrite(i64 noundef %175, i64 noundef %176, ptr noundef %177)
  %179 = icmp slt i32 %178, 0
  br i1 %179, label %180, label %181

180:                                              ; preds = %174
  br label %205

181:                                              ; preds = %174
  %182 = load i64, ptr %11, align 8, !tbaa !3
  %183 = call i32 @H5Sclose(i64 noundef %182)
  %184 = icmp slt i32 %183, 0
  br i1 %184, label %185, label %186

185:                                              ; preds = %181
  br label %205

186:                                              ; preds = %181
  %187 = load i64, ptr %9, align 8, !tbaa !3
  %188 = call i32 @H5Tclose(i64 noundef %187)
  %189 = icmp slt i32 %188, 0
  br i1 %189, label %190, label %191

190:                                              ; preds = %186
  br label %205

191:                                              ; preds = %186
  %192 = load i64, ptr %10, align 8, !tbaa !3
  %193 = call i32 @H5Aclose(i64 noundef %192)
  %194 = icmp slt i32 %193, 0
  br i1 %194, label %195, label %196

195:                                              ; preds = %191
  br label %205

196:                                              ; preds = %191
  %197 = load ptr, ptr %13, align 8, !tbaa !17
  call void @free(ptr noundef %197) #7
  br label %198

198:                                              ; preds = %196, %101
  br label %199

199:                                              ; preds = %198, %100
  %200 = load i64, ptr %8, align 8, !tbaa !3
  %201 = call i32 @H5Dclose(i64 noundef %200)
  %202 = icmp slt i32 %201, 0
  br i1 %202, label %203, label %204

203:                                              ; preds = %199
  store i32 -1, ptr %4, align 4
  store i32 1, ptr %17, align 4
  br label %214

204:                                              ; preds = %199
  store i32 0, ptr %4, align 4
  store i32 1, ptr %17, align 4
  br label %214

205:                                              ; preds = %195, %190, %185, %180, %173, %166, %161, %157, %148, %142, %137, %123, %118, %113, %108, %99, %94, %89, %84, %78, %72, %65, %42, %35
  %206 = load i64, ptr %8, align 8, !tbaa !3
  %207 = call i32 @H5Dclose(i64 noundef %206)
  %208 = load i64, ptr %11, align 8, !tbaa !3
  %209 = call i32 @H5Sclose(i64 noundef %208)
  %210 = load i64, ptr %9, align 8, !tbaa !3
  %211 = call i32 @H5Tclose(i64 noundef %210)
  %212 = load i64, ptr %10, align 8, !tbaa !3
  %213 = call i32 @H5Aclose(i64 noundef %212)
  store i32 -1, ptr %4, align 4
  store i32 1, ptr %17, align 4
  br label %214

214:                                              ; preds = %205, %204, %203, %30, %24, %20
  call void @llvm.lifetime.end.p0(i64 4, ptr %16) #7
  call void @llvm.lifetime.end.p0(i64 8, ptr %15) #7
  call void @llvm.lifetime.end.p0(i64 8, ptr %14) #7
  call void @llvm.lifetime.end.p0(i64 8, ptr %13) #7
  call void @llvm.lifetime.end.p0(i64 8, ptr %12) #7
  call void @llvm.lifetime.end.p0(i64 8, ptr %11) #7
  call void @llvm.lifetime.end.p0(i64 8, ptr %10) #7
  call void @llvm.lifetime.end.p0(i64 8, ptr %9) #7
  call void @llvm.lifetime.end.p0(i64 8, ptr %8) #7
  %215 = load i32, ptr %4, align 4
  ret i32 %215
}