; Function Attrs: nounwind uwtable
define range(i32 -1, 1) i32 @H5IMlink_palette(i64 noundef %0, ptr noundef %1, ptr noundef %2) local_unnamed_addr #0 {
  %4 = alloca i64, align 8
  %5 = alloca i64, align 8
  call void @llvm.lifetime.start.p0(i64 8, ptr nonnull %4) #8
  call void @llvm.lifetime.start.p0(i64 8, ptr nonnull %5) #8
  %6 = icmp eq ptr %1, null
  %7 = icmp eq ptr %2, null
  %or.cond = or i1 %6, %7
  br i1 %or.cond, label %108, label %8

8:                                                ; preds = %3
  %9 = tail call i64 @H5Dopen2(i64 noundef %0, ptr noundef nonnull %1, i64 noundef 0) #8
  %10 = icmp slt i64 %9, 0
  br i1 %10, label %108, label %11

11:                                               ; preds = %8
  %12 = tail call i32 @H5Aexists(i64 noundef %9, ptr noundef nonnull @.str.10) #8
  %13 = icmp slt i32 %12, 0
  br i1 %13, label %103, label %14

14:                                               ; preds = %11
  %15 = icmp eq i32 %12, 0
  br i1 %15, label %16, label %49

16:                                               ; preds = %14
  %17 = tail call i64 @H5Screate(i32 noundef 0) #8
  %18 = icmp slt i64 %17, 0
  br i1 %18, label %103, label %19

19:                                               ; preds = %16
  %20 = load i8, ptr @H5_libinit_g, align 1, !tbaa !7, !range !9, !noundef !10
  %21 = trunc nuw i8 %20 to i1
  %22 = load i8, ptr @H5_libterm_g, align 1, !range !9
  %23 = trunc nuw i8 %22 to i1
  %24 = select i1 %21, i1 true, i1 %23
  br i1 %24, label %27, label %25, !prof !11

25:                                               ; preds = %19
  %26 = tail call i32 @H5open() #8
  br label %27

27:                                               ; preds = %19, %25
  %28 = load i64, ptr @H5T_STD_REF_OBJ_g, align 8, !tbaa !3
  %29 = tail call i64 @H5Tcopy(i64 noundef %28) #8
  %30 = icmp slt i64 %29, 0
  br i1 %30, label %103, label %31

31:                                               ; preds = %27
  %32 = tail call i64 @H5Acreate2(i64 noundef %9, ptr noundef nonnull @.str.10, i64 noundef %29, i64 noundef %17, i64 noundef 0, i64 noundef 0) #8
  %33 = icmp slt i64 %32, 0
  br i1 %33, label %103, label %34

34:                                               ; preds = %31
  %35 = call i32 @H5Rcreate(ptr noundef nonnull %4, i64 noundef %0, ptr noundef nonnull %2, i32 noundef 0, i64 noundef -1) #8
  %36 = icmp slt i32 %35, 0
  br i1 %36, label %103, label %37

37:                                               ; preds = %34
  %38 = call i32 @H5Awrite(i64 noundef %32, i64 noundef %29, ptr noundef nonnull %4) #8
  %39 = icmp slt i32 %38, 0
  br i1 %39, label %103, label %40

40:                                               ; preds = %37
  %41 = call i32 @H5Sclose(i64 noundef %17) #8
  %42 = icmp slt i32 %41, 0
  br i1 %42, label %103, label %43

43:                                               ; preds = %40
  %44 = call i32 @H5Tclose(i64 noundef %29) #8
  %45 = icmp slt i32 %44, 0
  br i1 %45, label %103, label %46

46:                                               ; preds = %43
  %47 = call i32 @H5Aclose(i64 noundef %32) #8
  %48 = icmp slt i32 %47, 0
  br i1 %48, label %103, label %101

49:                                               ; preds = %14
  %50 = tail call i64 @H5Aopen(i64 noundef %9, ptr noundef nonnull @.str.10, i64 noundef 0) #8
  %51 = icmp slt i64 %50, 0
  br i1 %51, label %103, label %52

52:                                               ; preds = %49
  %53 = tail call i64 @H5Aget_type(i64 noundef %50) #8
  %54 = icmp slt i64 %53, 0
  br i1 %54, label %103, label %55

55:                                               ; preds = %52
  %56 = tail call i32 @H5Tget_class(i64 noundef %53) #8
  %57 = icmp slt i32 %56, 0
  br i1 %57, label %103, label %58

58:                                               ; preds = %55
  %59 = tail call i64 @H5Aget_space(i64 noundef %50) #8
  %60 = icmp slt i64 %59, 0
  br i1 %60, label %103, label %61

61:                                               ; preds = %58
  %62 = tail call i64 @H5Sget_simple_extent_npoints(i64 noundef %59) #8
  %63 = add i64 %62, 1
  store i64 %63, ptr %5, align 8, !tbaa !3
  %64 = shl i64 %63, 3
  %65 = tail call noalias ptr @malloc(i64 noundef %64) #10
  %66 = tail call i32 @H5Aread(i64 noundef %50, i64 noundef %53, ptr noundef %65) #8
  %67 = icmp slt i32 %66, 0
  br i1 %67, label %103, label %68

68:                                               ; preds = %61
  %69 = tail call i32 @H5Adelete(i64 noundef %9, ptr noundef nonnull @.str.10) #8
  %70 = icmp slt i32 %69, 0
  br i1 %70, label %103, label %71

71:                                               ; preds = %68
  %72 = call i32 @H5Rcreate(ptr noundef nonnull %4, i64 noundef %0, ptr noundef nonnull %2, i32 noundef 0, i64 noundef -1) #8
  %73 = icmp slt i32 %72, 0
  br i1 %73, label %103, label %74

74:                                               ; preds = %71
  %75 = load i64, ptr %4, align 8, !tbaa !3
  %76 = getelementptr inbounds i64, ptr %65, i64 %62
  store i64 %75, ptr %76, align 8, !tbaa !3
  %77 = call i32 @H5Sclose(i64 noundef %59) #8
  %78 = icmp slt i32 %77, 0
  br i1 %78, label %103, label %79

79:                                               ; preds = %74
  %80 = call i64 @H5Screate_simple(i32 noundef 1, ptr noundef nonnull %5, ptr noundef null) #8
  %81 = icmp slt i64 %80, 0
  br i1 %81, label %103, label %82

82:                                               ; preds = %79
  %83 = call i32 @H5Aclose(i64 noundef %50) #8
  %84 = icmp slt i32 %83, 0
  br i1 %84, label %103, label %85

85:                                               ; preds = %82
  %86 = call i64 @H5Acreate2(i64 noundef %9, ptr noundef nonnull @.str.10, i64 noundef %53, i64 noundef %80, i64 noundef 0, i64 noundef 0) #8
  %87 = icmp slt i64 %86, 0
  br i1 %87, label %103, label %88

88:                                               ; preds = %85
  %89 = call i32 @H5Awrite(i64 noundef %86, i64 noundef %53, ptr noundef nonnull %65) #8
  %90 = icmp slt i32 %89, 0
  br i1 %90, label %103, label %91

91:                                               ; preds = %88
  %92 = call i32 @H5Sclose(i64 noundef %80) #8
  %93 = icmp slt i32 %92, 0
  br i1 %93, label %103, label %94

94:                                               ; preds = %91
  %95 = call i32 @H5Tclose(i64 noundef %53) #8
  %96 = icmp slt i32 %95, 0
  br i1 %96, label %103, label %97

97:                                               ; preds = %94
  %98 = call i32 @H5Aclose(i64 noundef %86) #8
  %99 = icmp slt i32 %98, 0
  br i1 %99, label %103, label %100

100:                                              ; preds = %97
  call void @free(ptr noundef nonnull %65) #8
  br label %101

101:                                              ; preds = %100, %46
  %102 = call i32 @H5Dclose(i64 noundef %9) #8
  %.lobit = ashr i32 %102, 31
  br label %108

103:                                              ; preds = %97, %94, %91, %88, %85, %82, %79, %74, %71, %68, %61, %58, %55, %52, %49, %46, %43, %40, %37, %34, %31, %27, %16, %11
  %.050 = phi i64 [ -1, %11 ], [ %17, %16 ], [ %17, %27 ], [ %17, %31 ], [ %17, %34 ], [ %17, %37 ], [ %17, %40 ], [ %17, %43 ], [ %17, %46 ], [ -1, %49 ], [ -1, %52 ], [ -1, %55 ], [ %59, %58 ], [ %59, %61 ], [ %59, %68 ], [ %59, %71 ], [ %59, %74 ], [ %80, %79 ], [ %80, %82 ], [ %80, %85 ], [ %80, %88 ], [ %80, %91 ], [ %80, %94 ], [ %80, %97 ]
  %.049 = phi i64 [ -1, %11 ], [ -1, %16 ], [ -1, %27 ], [ %32, %31 ], [ %32, %34 ], [ %32, %37 ], [ %32, %40 ], [ %32, %43 ], [ %32, %46 ], [ %50, %49 ], [ %50, %52 ], [ %50, %55 ], [ %50, %58 ], [ %50, %61 ], [ %50, %68 ], [ %50, %71 ], [ %50, %74 ], [ %50, %79 ], [ %50, %82 ], [ %86, %85 ], [ %86, %88 ], [ %86, %91 ], [ %86, %94 ], [ %86, %97 ]
  %.048 = phi i64 [ -1, %11 ], [ -1, %16 ], [ %29, %27 ], [ %29, %31 ], [ %29, %34 ], [ %29, %37 ], [ %29, %40 ], [ %29, %43 ], [ %29, %46 ], [ -1, %49 ], [ %53, %52 ], [ %53, %55 ], [ %53, %58 ], [ %53, %61 ], [ %53, %68 ], [ %53, %71 ], [ %53, %74 ], [ %53, %79 ], [ %53, %82 ], [ %53, %85 ], [ %53, %88 ], [ %53, %91 ], [ %53, %94 ], [ %53, %97 ]
  %104 = call i32 @H5Dclose(i64 noundef %9) #8
  %105 = call i32 @H5Sclose(i64 noundef %.050) #8
  %106 = call i32 @H5Tclose(i64 noundef %.048) #8
  %107 = call i32 @H5Aclose(i64 noundef %.049) #8
  br label %108

108:                                              ; preds = %101, %8, %3, %103
  %.0 = phi i32 [ -1, %103 ], [ -1, %3 ], [ -1, %8 ], [ %.lobit, %101 ]
  call void @llvm.lifetime.end.p0(i64 8, ptr nonnull %5) #8
  call void @llvm.lifetime.end.p0(i64 8, ptr nonnull %4) #8
  ret i32 %.0
}